target datalayout = "e-m:e-p270:32:32-p271:32:32-p272:64:64-i64:64-i128:128-f80:128-n8:16:32:64-S128"
target triple = "x86_64-pc-linux-gnu"

%class.MemRegion = type { ptr, i64 }
%class.elapsedTimer = type <{ i64, i64, i8, [7 x i8] }>
%class.CollectedHeap = type { ptr, ptr, i64, i64, %class.SoftRefPolicy, %class.MemRegion, i8, i64, i32, i32, i32, i32, ptr, ptr }
%class.SoftRefPolicy = type { i8, i8 }
%class.G1MonitoringScope = type { ptr, %class.TraceCollectorStats, %class.TraceMemoryManagerStats }
%class.TraceCollectorStats = type { %class.PerfTraceTimedEvent, ptr }
%class.PerfTraceTimedEvent = type { %class.PerfTraceTime, ptr }
%class.PerfTraceTime = type { %class.elapsedTimer, ptr }
%class.TraceMemoryManagerStats = type { ptr, i32, ptr, i8, i8, i8, i8, i8, i8, i8, i8 }

@_ZN8Universe14_collectedHeapE = external global ptr, align 8

; Function Attrs: mustprogress nounwind uwtable
define linkonce_odr hidden noundef ptr @_ZN8Universe4heapEv() #1 comdat align 2 {
  %1 = load ptr, ptr @_ZN8Universe14_collectedHeapE, align 8
  ret ptr %1
}

; Function Attrs: mustprogress nounwind uwtable
define linkonce_odr hidden noundef ptr @_ZN13CollectedHeap10named_heapI15G1CollectedHeapEEPT_NS_4NameE(i32 noundef %0) #1 comdat align 2 {
  %2 = alloca i32, align 4
  %3 = alloca ptr, align 8
  store i32 %0, ptr %2, align 4
  %4 = call noundef ptr @_ZN8Universe4heapEv()
  store ptr %4, ptr %3, align 8
  %5 = load ptr, ptr %3, align 8
  ret ptr %5
}

; Function Attrs: mustprogress nounwind uwtable
define linkonce_odr hidden noundef i32 @_ZN13CollectedHeap8gc_causeEv(ptr noundef nonnull align 8 dereferenceable(104) %0) #1 comdat align 2 {
  %2 = alloca ptr, align 8
  store ptr %0, ptr %2, align 8
  %3 = load ptr, ptr %2, align 8
  %4 = getelementptr inbounds %class.CollectedHeap, ptr %3, i32 0, i32 10
  %5 = load i32, ptr %4, align 8
  ret i32 %5
}

; Function Attrs: mustprogress nounwind uwtable
define linkonce_odr hidden noundef ptr @_ZN15G1CollectedHeap4heapEv() #1 comdat align 2 {
  %1 = call noundef ptr @_ZN13CollectedHeap10named_heapI15G1CollectedHeapEEPT_NS_4NameE(i32 noundef 3)
  ret ptr %1
}

; Function Attrs: mustprogress nounwind uwtable
define hidden void @_ZN17G1MonitoringScopeC2EP19G1MonitoringSupportP17CollectorCountersP15GCMemoryManagerPKcb(ptr noundef nonnull align 8 dereferenceable(88) %0, ptr noundef %1, ptr noundef %2, ptr noundef %3, ptr noundef %4, i1 noundef zeroext %5) unnamed_addr #1 align 2 {
  %7 = alloca ptr, align 8
  %8 = alloca ptr, align 8
  %9 = alloca ptr, align 8
  %10 = alloca ptr, align 8
  %11 = alloca ptr, align 8
  %12 = alloca i8, align 1
  store ptr %0, ptr %7, align 8
  store ptr %1, ptr %8, align 8
  store ptr %2, ptr %9, align 8
  store ptr %3, ptr %10, align 8
  store ptr %4, ptr %11, align 8
  %13 = zext i1 %5 to i8
  store i8 %13, ptr %12, align 1
  %14 = load ptr, ptr %7, align 8
  %15 = getelementptr inbounds %class.G1MonitoringScope, ptr %14, i32 0, i32 0
  %16 = load ptr, ptr %8, align 8
  store ptr %16, ptr %15, align 8
  %17 = getelementptr inbounds %class.G1MonitoringScope, ptr %14, i32 0, i32 1
  %18 = load ptr, ptr %9, align 8
  call void @_ZN19TraceCollectorStatsC1EP17CollectorCounters(ptr noundef nonnull align 8 dereferenceable(48) %17, ptr noundef %18)
  %19 = getelementptr inbounds %class.G1MonitoringScope, ptr %14, i32 0, i32 2
  %20 = load ptr, ptr %10, align 8
  %21 = call noundef ptr @_ZN15G1CollectedHeap4heapEv()
  %22 = call noundef i32 @_ZN13CollectedHeap8gc_causeEv(ptr noundef nonnull align 8 dereferenceable(104) %21)
  %23 = load ptr, ptr %11, align 8
  %24 = load i8, ptr %12, align 1
  %25 = trunc i8 %24 to i1
  call void @_ZN23TraceMemoryManagerStatsC1EP15GCMemoryManagerN7GCCause5CauseEPKcbbbbbbbb(ptr noundef nonnull align 8 dereferenceable(32) %19, ptr noundef %20, i32 noundef %22, ptr noundef %23, i1 noundef zeroext %25, i1 noundef zeroext true, i1 noundef zeroext true, i1 noundef zeroext true, i1 noundef zeroext true, i1 noundef zeroext true, i1 noundef zeroext true, i1 noundef zeroext true)
  ret void
}