; Function Attrs: mustprogress nounwind uwtable
define hidden void @_ZN17G1MonitoringScopeC2EP19G1MonitoringSupportP17CollectorCountersP15GCMemoryManagerPKcb(ptr noundef nonnull align 8 dereferenceable(88) %0, ptr noundef %1, ptr noundef %2, ptr noundef %3, ptr noundef %4, i1 noundef zeroext %5) unnamed_addr #0 align 2 {
  store ptr %1, ptr %0, align 8
  %7 = getelementptr inbounds i8, ptr %0, i64 8
  tail call void @_ZN19TraceCollectorStatsC1EP17CollectorCounters(ptr noundef nonnull align 8 dereferenceable(48) %7, ptr noundef %2) #10
  %8 = getelementptr inbounds i8, ptr %0, i64 56
  %9 = load ptr, ptr @_ZN8Universe14_collectedHeapE, align 8
  %10 = getelementptr inbounds i8, ptr %9, i64 80
  %11 = load i32, ptr %10, align 8
  tail call void @_ZN23TraceMemoryManagerStatsC1EP15GCMemoryManagerN7GCCause5CauseEPKcbbbbbbbb(ptr noundef nonnull align 8 dereferenceable(32) %8, ptr noundef %3, i32 noundef %11, ptr noundef %4, i1 noundef zeroext %5, i1 noundef zeroext true, i1 noundef zeroext true, i1 noundef zeroext true, i1 noundef zeroext true, i1 noundef zeroext true, i1 noundef zeroext true, i1 noundef zeroext true) #10
  ret void
}